; Function Attrs: mustprogress nounwind uwtable
define dso_local noundef range(i32 0, 4) i32 @_ZNK5clang19InMemoryModuleCache11getPCMStateEN4llvm9StringRefE(ptr noundef nonnull align 8 dereferenceable(32) %0, ptr %1, i64 %2) local_unnamed_addr #0 align 2 {
  %4 = getelementptr inbounds nuw i8, ptr %0, i64 8
  %5 = tail call noundef i32 @_ZN4llvm13StringMapImpl4hashENS_9StringRefE(ptr %1, i64 %2) #4
  %6 = tail call noundef i32 @_ZNK4llvm13StringMapImpl7FindKeyENS_9StringRefEj(ptr noundef nonnull align 8 dereferenceable(24) %4, ptr %1, i64 %2, i32 noundef %5) #4
  %7 = icmp eq i32 %6, -1
  %8 = getelementptr inbounds nuw i8, ptr %0, i64 16
  %9 = load i32, ptr %8, align 8
  %10 = zext i32 %9 to i64
  %11 = sext i32 %6 to i64
  %12 = icmp eq i64 %11, %10
  %13 = select i1 %7, i1 true, i1 %12
  br i1 %13, label %24, label %14

14:                                               ; preds = %3
  %15 = load ptr, ptr %4, align 8
  %.sroa.0.0.i.i = getelementptr inbounds ptr, ptr %15, i64 %11
  %16 = load ptr, ptr %.sroa.0.0.i.i, align 8
  %17 = getelementptr inbounds nuw i8, ptr %16, i64 16
  %18 = load i8, ptr %17, align 8
  %19 = trunc i8 %18 to i1
  br i1 %19, label %24, label %20

20:                                               ; preds = %14
  %21 = getelementptr inbounds nuw i8, ptr %16, i64 8
  %22 = load ptr, ptr %21, align 8
  %.not = icmp eq ptr %22, null
  %23 = select i1 %.not, i32 2, i32 1
  br label %24

24:                                               ; preds = %14, %3, %20
  %.0 = phi i32 [ %23, %20 ], [ 0, %3 ], [ 3, %14 ]
  ret i32 %.0
}